target datalayout = "e-m:e-p270:32:32-p271:32:32-p272:64:64-i64:64-i128:128-f80:128-n8:16:32:64-S128"
target triple = "x86_64-pc-linux-gnu"

%class.rational = type { %class.mpq }
%class.mpq = type { %class.mpz, %class.mpz }
%class.mpz = type { i32, i8, ptr }
%"class.smt::farkas_util" = type { ptr, %class.arith_util, %class.ref_vector, %class.vector.0, %class.rational, i8, i32, %class.svector, %class.svector, %class.svector, %class.svector, %class.svector }
%class.arith_util = type { ptr, ptr }
%class.ref_vector = type { %class.ref_vector_core }
%class.ref_vector_core = type { %class.ref_manager_wrapper, %class.ptr_vector }
%class.ref_manager_wrapper = type { ptr }
%class.ptr_vector = type { %class.vector }
%class.vector = type { ptr }
%class.vector.0 = type { ptr }
%class.svector = type { %class.vector.1 }
%class.vector.1 = type { ptr }

; Function Attrs: inlinehint mustprogress nounwind uwtable
define linkonce_odr void @_ZSt4swapIjENSt9enable_ifIXsr6__and_ISt6__not_ISt15__is_tuple_likeIT_EESt21is_move_constructibleIS3_ESt18is_move_assignableIS3_EEE5valueEvE4typeERS3_SC_(ptr noundef nonnull align 4 dereferenceable(4) %0, ptr noundef nonnull align 4 dereferenceable(4) %1) #8 comdat {
  %3 = alloca ptr, align 8
  %4 = alloca ptr, align 8
  %5 = alloca i32, align 4
  store ptr %0, ptr %3, align 8, !tbaa !80
  store ptr %1, ptr %4, align 8, !tbaa !80
  call void @llvm.lifetime.start.p0(i64 4, ptr %5) #3
  %6 = load ptr, ptr %3, align 8, !tbaa !80
  %7 = load i32, ptr %6, align 4, !tbaa !63
  store i32 %7, ptr %5, align 4, !tbaa !63
  %8 = load ptr, ptr %4, align 8, !tbaa !80
  %9 = load i32, ptr %8, align 4, !tbaa !63
  %10 = load ptr, ptr %3, align 8, !tbaa !80
  store i32 %9, ptr %10, align 4, !tbaa !63
  %11 = load i32, ptr %5, align 4, !tbaa !63
  %12 = load ptr, ptr %4, align 8, !tbaa !80
  store i32 %11, ptr %12, align 4, !tbaa !63
  call void @llvm.lifetime.end.p0(i64 4, ptr %5) #3
  ret void
}

; Function Attrs: mustprogress nounwind uwtable
define linkonce_odr hidden noundef nonnull align 4 dereferenceable(4) ptr @_ZN6vectorIjLb0EjEixEj(ptr noundef nonnull align 8 dereferenceable(8) %0, i32 noundef %1) #5 comdat align 2 {
  %3 = alloca ptr, align 8
  %4 = alloca i32, align 4
  store ptr %0, ptr %3, align 8, !tbaa !77
  store i32 %1, ptr %4, align 4, !tbaa !63
  %5 = load ptr, ptr %3, align 8
  %6 = getelementptr inbounds nuw %class.vector.1, ptr %5, i32 0, i32 0
  %7 = load ptr, ptr %6, align 8, !tbaa !79
  %8 = load i32, ptr %4, align 4, !tbaa !63
  %9 = zext i32 %8 to i64
  %10 = getelementptr inbounds nuw i32, ptr %7, i64 %9
  ret ptr %10
}

; Function Attrs: mustprogress uwtable
define hidden void @_ZN3smt11farkas_util5mergeEjj(ptr noundef nonnull align 8 dereferenceable(128) %0, i32 noundef %1, i32 noundef %2) #4 align 2 {
  %4 = alloca ptr, align 8
  %5 = alloca i32, align 4
  %6 = alloca i32, align 4
  store ptr %0, ptr %4, align 8, !tbaa !3
  store i32 %1, ptr %5, align 4, !tbaa !63
  store i32 %2, ptr %6, align 4, !tbaa !63
  %7 = load ptr, ptr %4, align 8
  %8 = load i32, ptr %5, align 4, !tbaa !63
  %9 = call noundef i32 @_ZN3smt11farkas_util4findEj(ptr noundef nonnull align 8 dereferenceable(128) %7, i32 noundef %8)
  store i32 %9, ptr %5, align 4, !tbaa !63
  %10 = load i32, ptr %6, align 4, !tbaa !63
  %11 = call noundef i32 @_ZN3smt11farkas_util4findEj(ptr noundef nonnull align 8 dereferenceable(128) %7, i32 noundef %10)
  store i32 %11, ptr %6, align 4, !tbaa !63
  %12 = load i32, ptr %5, align 4, !tbaa !63
  %13 = load i32, ptr %6, align 4, !tbaa !63
  %14 = icmp eq i32 %12, %13
  br i1 %14, label %15, label %16

15:                                               ; preds = %3
  br label %41

16:                                               ; preds = %3
  %17 = getelementptr inbounds nuw %"class.smt::farkas_util", ptr %7, i32 0, i32 8
  %18 = load i32, ptr %5, align 4, !tbaa !63
  %19 = call noundef nonnull align 4 dereferenceable(4) ptr @_ZN6vectorIjLb0EjEixEj(ptr noundef nonnull align 8 dereferenceable(8) %17, i32 noundef %18)
  %20 = load i32, ptr %19, align 4, !tbaa !63
  %21 = getelementptr inbounds nuw %"class.smt::farkas_util", ptr %7, i32 0, i32 8
  %22 = load i32, ptr %6, align 4, !tbaa !63
  %23 = call noundef nonnull align 4 dereferenceable(4) ptr @_ZN6vectorIjLb0EjEixEj(ptr noundef nonnull align 8 dereferenceable(8) %21, i32 noundef %22)
  %24 = load i32, ptr %23, align 4, !tbaa !63
  %25 = icmp ugt i32 %20, %24
  br i1 %25, label %26, label %27

26:                                               ; preds = %16
  call void @_ZSt4swapIjENSt9enable_ifIXsr6__and_ISt6__not_ISt15__is_tuple_likeIT_EESt21is_move_constructibleIS3_ESt18is_move_assignableIS3_EEE5valueEvE4typeERS3_SC_(ptr noundef nonnull align 4 dereferenceable(4) %5, ptr noundef nonnull align 4 dereferenceable(4) %6) #3
  br label %27

27:                                               ; preds = %26, %16
  %28 = load i32, ptr %6, align 4, !tbaa !63
  %29 = getelementptr inbounds nuw %"class.smt::farkas_util", ptr %7, i32 0, i32 7
  %30 = load i32, ptr %5, align 4, !tbaa !63
  %31 = call noundef nonnull align 4 dereferenceable(4) ptr @_ZN6vectorIjLb0EjEixEj(ptr noundef nonnull align 8 dereferenceable(8) %29, i32 noundef %30)
  store i32 %28, ptr %31, align 4, !tbaa !63
  %32 = getelementptr inbounds nuw %"class.smt::farkas_util", ptr %7, i32 0, i32 8
  %33 = load i32, ptr %5, align 4, !tbaa !63
  %34 = call noundef nonnull align 4 dereferenceable(4) ptr @_ZN6vectorIjLb0EjEixEj(ptr noundef nonnull align 8 dereferenceable(8) %32, i32 noundef %33)
  %35 = load i32, ptr %34, align 4, !tbaa !63
  %36 = getelementptr inbounds nuw %"class.smt::farkas_util", ptr %7, i32 0, i32 8
  %37 = load i32, ptr %6, align 4, !tbaa !63
  %38 = call noundef nonnull align 4 dereferenceable(4) ptr @_ZN6vectorIjLb0EjEixEj(ptr noundef nonnull align 8 dereferenceable(8) %36, i32 noundef %37)
  %39 = load i32, ptr %38, align 4, !tbaa !63
  %40 = add i32 %39, %35
  store i32 %40, ptr %38, align 4, !tbaa !63
  br label %41

41:                                               ; preds = %27, %15
  ret void
}