; Function Attrs: mustprogress uwtable
define hidden void @_ZN3smt11farkas_util5mergeEjj(ptr noundef nonnull align 8 dereferenceable(128) %0, i32 noundef %1, i32 noundef %2) local_unnamed_addr #3 align 2 {
  %4 = tail call noundef i32 @_ZN3smt11farkas_util4findEj(ptr noundef nonnull align 8 dereferenceable(128) %0, i32 noundef %1)
  %5 = tail call noundef i32 @_ZN3smt11farkas_util4findEj(ptr noundef nonnull align 8 dereferenceable(128) %0, i32 noundef %2)
  %6 = icmp eq i32 %4, %5
  br i1 %6, label %27, label %7

7:                                                ; preds = %3
  %8 = getelementptr inbounds nuw i8, ptr %0, i64 96
  %9 = load ptr, ptr %8, align 8, !tbaa !75
  %10 = zext i32 %4 to i64
  %11 = getelementptr inbounds nuw i32, ptr %9, i64 %10
  %12 = load i32, ptr %11, align 4, !tbaa !58
  %13 = zext i32 %5 to i64
  %14 = getelementptr inbounds nuw i32, ptr %9, i64 %13
  %15 = load i32, ptr %14, align 4, !tbaa !58
  %16 = icmp ugt i32 %12, %15
  %spec.select = select i1 %16, i32 %5, i32 %4
  %spec.select10 = select i1 %16, i32 %4, i32 %5
  %17 = getelementptr inbounds nuw i8, ptr %0, i64 88
  %18 = load ptr, ptr %17, align 8, !tbaa !75
  %19 = zext i32 %spec.select to i64
  %20 = getelementptr inbounds nuw i32, ptr %18, i64 %19
  store i32 %spec.select10, ptr %20, align 4, !tbaa !58
  %21 = getelementptr inbounds nuw i32, ptr %9, i64 %19
  %22 = load i32, ptr %21, align 4, !tbaa !58
  %23 = zext i32 %spec.select10 to i64
  %24 = getelementptr inbounds nuw i32, ptr %9, i64 %23
  %25 = load i32, ptr %24, align 4, !tbaa !58
  %26 = add i32 %25, %22
  store i32 %26, ptr %24, align 4, !tbaa !58
  br label %27

27:                                               ; preds = %3, %7
  ret void
}